; Function Attrs: mustprogress uwtable
define hidden noundef zeroext i1 @_ZN10ODDLParser13OpenDDLExport14writeValueTypeENS_5Value9ValueTypeEmRNSt7__cxx1112basic_stringIcSt11char_traitsIcESaIcEEE(ptr nonnull readnone align 8 captures(none) %this, i32 noundef %type, i64 noundef %numItems, ptr noundef nonnull align 8 dereferenceable(32) %statement) local_unnamed_addr #0 align 2 personality ptr @__gxx_personality_v0 {
entry:
  %typeStr = alloca %"class.std::__cxx11::basic_string", align 8
  %ref.tmp = alloca %"class.std::allocator", align 1
  %buffer = alloca [256 x i8], align 16
  %cmp = icmp ne i32 %type, 14
  br i1 %cmp, label %if.end, label %return

if.end:                                           ; preds = %entry
  %call = tail call noundef ptr @_ZN10ODDLParser12getTypeTokenENS_5Value9ValueTypeE(i32 noundef %type)
  call void @_ZNSaIcEC1Ev(ptr noundef nonnull align 1 dereferenceable(1) %ref.tmp) #14
  %call.i7 = invoke noundef ptr @_ZNSt7__cxx1112basic_stringIcSt11char_traitsIcESaIcEE13_M_local_dataEv(ptr noundef nonnull align 8 dereferenceable(32) %typeStr)
          to label %call.i.noexc unwind label %lpad

call.i.noexc:                                     ; preds = %if.end
  invoke void @_ZNSt7__cxx1112basic_stringIcSt11char_traitsIcESaIcEE12_Alloc_hiderC1EPcRKS3_(ptr noundef nonnull align 8 dereferenceable(32) %typeStr, ptr noundef %call.i7, ptr noundef nonnull align 1 dereferenceable(1) %ref.tmp)
          to label %.noexc unwind label %lpad

.noexc:                                           ; preds = %call.i.noexc
  %cmp.i = icmp eq ptr %call, null
  br i1 %cmp.i, label %if.then.i, label %if.end.i

if.then.i:                                        ; preds = %.noexc
  invoke void @_ZSt19__throw_logic_errorPKc(ptr noundef nonnull @.str.17) #16
          to label %invoke.cont.i unwind label %lpad.i

invoke.cont.i:                                    ; preds = %if.then.i
  unreachable

lpad.i:                                           ; preds = %if.end.i, %if.then.i
  %0 = landingpad { ptr, i32 }
          cleanup
  call void @_ZNSaIcED2Ev(ptr noundef nonnull align 8 dereferenceable(32) %typeStr) #14
  br label %lpad.body

if.end.i:                                         ; preds = %.noexc
  %call.i.i = call noundef i64 @strlen(ptr noundef nonnull dereferenceable(1) %call) #14
  %add.ptr.i = getelementptr inbounds i8, ptr %call, i64 %call.i.i
  invoke void @_ZNSt7__cxx1112basic_stringIcSt11char_traitsIcESaIcEE12_M_constructIPKcEEvT_S8_St20forward_iterator_tag(ptr noundef nonnull align 8 dereferenceable(32) %typeStr, ptr noundef nonnull %call, ptr noundef nonnull %add.ptr.i)
          to label %invoke.cont unwind label %lpad.i

invoke.cont:                                      ; preds = %if.end.i
  call void @_ZNSaIcED1Ev(ptr noundef nonnull align 1 dereferenceable(1) %ref.tmp) #14
  %call4 = invoke noundef nonnull align 8 dereferenceable(32) ptr @_ZNSt7__cxx1112basic_stringIcSt11char_traitsIcESaIcEEpLERKS4_(ptr noundef nonnull align 8 dereferenceable(32) %statement, ptr noundef nonnull align 8 dereferenceable(32) %typeStr)
          to label %invoke.cont3 unwind label %lpad2

invoke.cont3:                                     ; preds = %invoke.cont
  %cmp5 = icmp ugt i64 %numItems, 1
  br i1 %cmp5, label %if.then6, label %if.end16

if.then6:                                         ; preds = %invoke.cont3
  %call8 = invoke noundef nonnull align 8 dereferenceable(32) ptr @_ZNSt7__cxx1112basic_stringIcSt11char_traitsIcESaIcEEpLEPKc(ptr noundef nonnull align 8 dereferenceable(32) %statement, ptr noundef nonnull @.str.8)
          to label %invoke.cont7 unwind label %lpad2

invoke.cont7:                                     ; preds = %if.then6
  call void @llvm.memset.p0.i64(ptr noundef nonnull align 16 dereferenceable(256) %buffer, i8 0, i64 256, i1 false)
  %conv = trunc i64 %numItems to i32
  %call10 = call i32 (ptr, i64, ptr, ...) @snprintf(ptr noundef nonnull dereferenceable(1) %buffer, i64 noundef 256, ptr noundef nonnull @.str.9, i32 noundef %conv) #14
  %call13 = invoke noundef nonnull align 8 dereferenceable(32) ptr @_ZNSt7__cxx1112basic_stringIcSt11char_traitsIcESaIcEEpLEPKc(ptr noundef nonnull align 8 dereferenceable(32) %statement, ptr noundef nonnull %buffer)
          to label %invoke.cont12 unwind label %lpad2

invoke.cont12:                                    ; preds = %invoke.cont7
  %call15 = invoke noundef nonnull align 8 dereferenceable(32) ptr @_ZNSt7__cxx1112basic_stringIcSt11char_traitsIcESaIcEEpLEPKc(ptr noundef nonnull align 8 dereferenceable(32) %statement, ptr noundef nonnull @.str.10)
          to label %if.end16 unwind label %lpad2

lpad:                                             ; preds = %call.i.noexc, %if.end
  %1 = landingpad { ptr, i32 }
          cleanup
  br label %lpad.body

lpad.body:                                        ; preds = %lpad.i, %lpad
  %eh.lpad-body = phi { ptr, i32 } [ %1, %lpad ], [ %0, %lpad.i ]
  call void @_ZNSaIcED1Ev(ptr noundef nonnull align 1 dereferenceable(1) %ref.tmp) #14
  br label %eh.resume

lpad2:                                            ; preds = %invoke.cont12, %invoke.cont7, %if.then6, %invoke.cont
  %2 = landingpad { ptr, i32 }
          cleanup
  call void @_ZNSt7__cxx1112basic_stringIcSt11char_traitsIcESaIcEED1Ev(ptr noundef nonnull align 8 dereferenceable(32) %typeStr) #14
  br label %eh.resume

if.end16:                                         ; preds = %invoke.cont12, %invoke.cont3
  call void @_ZNSt7__cxx1112basic_stringIcSt11char_traitsIcESaIcEED1Ev(ptr noundef nonnull align 8 dereferenceable(32) %typeStr) #14
  br label %return

return:                                           ; preds = %entry, %if.end16
  ret i1 %cmp

eh.resume:                                        ; preds = %lpad2, %lpad.body
  %.pn = phi { ptr, i32 } [ %2, %lpad2 ], [ %eh.lpad-body, %lpad.body ]
  resume { ptr, i32 } %.pn
}